target datalayout = "e-m:e-p270:32:32-p271:32:32-p272:64:64-i64:64-i128:128-f80:128-n8:16:32:64-S128"
target triple = "x86_64-pc-linux-gnu"

@.str.164 = private unnamed_addr constant [12 x i8] c".clamav.net\00", align 1
@.str.173 = private unnamed_addr constant [32 x i8] c"get_server_node: Invalid args!\0A\00", align 1
@.str.174 = private unnamed_addr constant [4 x i8] c"db.\00", align 1
@.str.175 = private unnamed_addr constant [28 x i8] c"https://database.clamav.net\00", align 1
@.str.176 = private unnamed_addr constant [74 x i8] c"get_server_node: Failed to duplicate string for database.clamav.net url.\0A\00", align 1
@.str.177 = private unnamed_addr constant [4 x i8] c"://\00", align 1
@.str.178 = private unnamed_addr constant [60 x i8] c"get_server_node: Failed to allocate memory for server url.\0A\00", align 1
@.str.179 = private unnamed_addr constant [8 x i8] c"%s://%s\00", align 1
@.str.180 = private unnamed_addr constant [61 x i8] c"get_server_node: Failed to duplicate string for server url.\0A\00", align 1

; Function Attrs: nounwind uwtable
define internal i32 @get_server_node(ptr noundef %0, ptr noundef %1, ptr noundef %2) #0 {
  %4 = alloca ptr, align 8
  %5 = alloca ptr, align 8
  %6 = alloca ptr, align 8
  %7 = alloca i32, align 4
  %8 = alloca ptr, align 8
  %9 = alloca i64, align 8
  store ptr %0, ptr %4, align 8
  store ptr %1, ptr %5, align 8
  store ptr %2, ptr %6, align 8
  store i32 16, ptr %7, align 4
  store ptr null, ptr %8, align 8
  store i64 0, ptr %9, align 8
  %10 = load ptr, ptr %4, align 8
  %11 = icmp eq ptr null, %10
  br i1 %11, label %18, label %12

12:                                               ; preds = %3
  %13 = load ptr, ptr %5, align 8
  %14 = icmp eq ptr null, %13
  br i1 %14, label %18, label %15

15:                                               ; preds = %12
  %16 = load ptr, ptr %6, align 8
  %17 = icmp eq ptr null, %16
  br i1 %17, label %18, label %19

18:                                               ; preds = %15, %12, %3
  call void (i32, ptr, ...) @mprintf(i32 noundef 5, ptr noundef @.str.173)
  br label %74

19:                                               ; preds = %15
  %20 = load ptr, ptr %6, align 8
  store ptr null, ptr %20, align 8
  %21 = load ptr, ptr %4, align 8
  %22 = call i32 @strncmp(ptr noundef %21, ptr noundef @.str.174, i64 noundef 3) #13
  %23 = icmp ne i32 %22, 0
  br i1 %23, label %35, label %24

24:                                               ; preds = %19
  %25 = load ptr, ptr %4, align 8
  %26 = call ptr @strstr(ptr noundef %25, ptr noundef @.str.164) #13
  %27 = icmp ne ptr %26, null
  br i1 %27, label %28, label %35

28:                                               ; preds = %24
  %29 = call ptr @cli_safer_strdup(ptr noundef @.str.175)
  store ptr %29, ptr %8, align 8
  %30 = load ptr, ptr %8, align 8
  %31 = icmp eq ptr null, %30
  br i1 %31, label %32, label %34

32:                                               ; preds = %28
  %33 = call i32 (i32, ptr, ...) @logg(i32 noundef 5, ptr noundef @.str.176)
  store i32 15, ptr %7, align 4
  br label %74

34:                                               ; preds = %28
  br label %71

35:                                               ; preds = %24, %19
  %36 = load ptr, ptr %4, align 8
  %37 = call ptr @strstr(ptr noundef %36, ptr noundef @.str.177) #13
  %38 = icmp ne ptr %37, null
  br i1 %38, label %60, label %39

39:                                               ; preds = %35
  %40 = load ptr, ptr %5, align 8
  %41 = call i64 @strlen(ptr noundef %40) #13
  %42 = add i64 %41, 3
  %43 = load ptr, ptr %4, align 8
  %44 = call i64 @strlen(ptr noundef %43) #13
  %45 = add i64 %42, %44
  store i64 %45, ptr %9, align 8
  %46 = load i64, ptr %9, align 8
  %47 = add i64 %46, 1
  %48 = call noalias ptr @malloc(i64 noundef %47) #15
  store ptr %48, ptr %8, align 8
  %49 = load ptr, ptr %8, align 8
  %50 = icmp eq ptr null, %49
  br i1 %50, label %51, label %53

51:                                               ; preds = %39
  %52 = call i32 (i32, ptr, ...) @logg(i32 noundef 5, ptr noundef @.str.178)
  store i32 15, ptr %7, align 4
  br label %74

53:                                               ; preds = %39
  %54 = load ptr, ptr %8, align 8
  %55 = load i64, ptr %9, align 8
  %56 = add i64 %55, 1
  %57 = load ptr, ptr %5, align 8
  %58 = load ptr, ptr %4, align 8
  %59 = call i32 (ptr, i64, ptr, ...) @snprintf(ptr noundef %54, i64 noundef %56, ptr noundef @.str.179, ptr noundef %57, ptr noundef %58) #10
  br label %70

60:                                               ; preds = %35
  %61 = load ptr, ptr %4, align 8
  %62 = call i64 @strlen(ptr noundef %61) #13
  store i64 %62, ptr %9, align 8
  %63 = load ptr, ptr %4, align 8
  %64 = call ptr @cli_safer_strdup(ptr noundef %63)
  store ptr %64, ptr %8, align 8
  %65 = load ptr, ptr %8, align 8
  %66 = icmp eq ptr null, %65
  br i1 %66, label %67, label %69

67:                                               ; preds = %60
  %68 = call i32 (i32, ptr, ...) @logg(i32 noundef 5, ptr noundef @.str.180)
  store i32 15, ptr %7, align 4
  br label %74

69:                                               ; preds = %60
  br label %70

70:                                               ; preds = %69, %53
  br label %71

71:                                               ; preds = %70, %34
  %72 = load ptr, ptr %8, align 8
  %73 = load ptr, ptr %6, align 8
  store ptr %72, ptr %73, align 8
  store i32 0, ptr %7, align 4
  br label %74

74:                                               ; preds = %71, %67, %51, %32, %18
  %75 = load i32, ptr %7, align 4
  ret i32 %75
}