; Function Attrs: nounwind uwtable
define internal fastcc noundef i32 @get_server_node(ptr noundef %0, ptr noundef %1, ptr noundef writeonly %2) unnamed_addr #0 {
  %4 = icmp eq ptr %0, null
  %5 = icmp eq ptr %1, null
  %or.cond = or i1 %4, %5
  %6 = icmp eq ptr %2, null
  %or.cond3 = or i1 %or.cond, %6
  br i1 %or.cond3, label %7, label %8

7:                                                ; preds = %3
  tail call void (i32, ptr, ...) @mprintf(i32 noundef 5, ptr noundef nonnull @.str.173) #17
  br label %36

8:                                                ; preds = %3
  store ptr null, ptr %2, align 8
  %9 = tail call i32 @strncmp(ptr noundef nonnull dereferenceable(1) %0, ptr noundef nonnull dereferenceable(4) @.str.174, i64 noundef 3) #21
  %.not = icmp eq i32 %9, 0
  br i1 %.not, label %10, label %17

10:                                               ; preds = %8
  %11 = tail call ptr @strstr(ptr noundef nonnull dereferenceable(1) %0, ptr noundef nonnull dereferenceable(1) @.str.164) #21
  %.not31 = icmp eq ptr %11, null
  br i1 %.not31, label %17, label %12

12:                                               ; preds = %10
  %13 = tail call ptr @cli_safer_strdup(ptr noundef nonnull @.str.175) #17
  %14 = icmp eq ptr %13, null
  br i1 %14, label %15, label %35

15:                                               ; preds = %12
  %16 = tail call i32 (i32, ptr, ...) @logg(i32 noundef 5, ptr noundef nonnull @.str.176) #17
  br label %36

17:                                               ; preds = %10, %8
  %18 = tail call ptr @strstr(ptr noundef nonnull dereferenceable(1) %0, ptr noundef nonnull dereferenceable(1) @.str.177) #21
  %.not32 = icmp eq ptr %18, null
  br i1 %.not32, label %19, label %30

19:                                               ; preds = %17
  %20 = tail call i64 @strlen(ptr noundef nonnull dereferenceable(1) %1) #21
  %21 = tail call i64 @strlen(ptr noundef nonnull dereferenceable(1) %0) #21
  %22 = add i64 %20, 4
  %23 = add i64 %22, %21
  %24 = tail call noalias ptr @malloc(i64 noundef %23) #22
  %25 = icmp eq ptr %24, null
  br i1 %25, label %26, label %28

26:                                               ; preds = %19
  %27 = tail call i32 (i32, ptr, ...) @logg(i32 noundef 5, ptr noundef nonnull @.str.178) #17
  br label %36

28:                                               ; preds = %19
  %29 = tail call i32 (ptr, i64, ptr, ...) @snprintf(ptr noundef nonnull %24, i64 noundef %23, ptr noundef nonnull @.str.179, ptr noundef nonnull %1, ptr noundef nonnull %0) #17
  br label %35

30:                                               ; preds = %17
  %31 = tail call ptr @cli_safer_strdup(ptr noundef nonnull %0) #17
  %32 = icmp eq ptr %31, null
  br i1 %32, label %33, label %35

33:                                               ; preds = %30
  %34 = tail call i32 (i32, ptr, ...) @logg(i32 noundef 5, ptr noundef nonnull @.str.180) #17
  br label %36

35:                                               ; preds = %28, %30, %12
  %.0 = phi ptr [ %31, %30 ], [ %24, %28 ], [ %13, %12 ]
  store ptr %.0, ptr %2, align 8
  br label %36

36:                                               ; preds = %35, %33, %26, %15, %7
  %.024 = phi i32 [ 16, %7 ], [ 15, %33 ], [ 0, %35 ], [ 15, %26 ], [ 15, %15 ]
  ret i32 %.024
}